target datalayout = "e-m:e-p270:32:32-p271:32:32-p272:64:64-i64:64-i128:128-f80:128-n8:16:32:64-S128"
target triple = "x86_64-pc-linux-gnu"

%struct.pathspec_item = type { ptr, ptr, i32, i32, i32, i32, i32, i32, ptr, ptr }
%struct.pathspec = type { i32, i8, i32, i32, ptr }

; Function Attrs: nounwind uwtable
define dso_local ptr @common_prefix(ptr noundef %0) #0 {
  %2 = alloca ptr, align 8
  %3 = alloca i64, align 8
  store ptr %0, ptr %2, align 8, !tbaa !28
  call void @llvm.lifetime.start.p0(i64 8, ptr %3) #12
  %4 = load ptr, ptr %2, align 8, !tbaa !28
  %5 = call i64 @common_prefix_len(ptr noundef %4)
  store i64 %5, ptr %3, align 8, !tbaa !19
  %6 = load i64, ptr %3, align 8, !tbaa !19
  %7 = icmp ne i64 %6, 0
  br i1 %7, label %8, label %17

8:                                                ; preds = %1
  %9 = load ptr, ptr %2, align 8, !tbaa !28
  %10 = getelementptr inbounds nuw %struct.pathspec, ptr %9, i32 0, i32 4
  %11 = load ptr, ptr %10, align 8, !tbaa !30
  %12 = getelementptr inbounds %struct.pathspec_item, ptr %11, i64 0
  %13 = getelementptr inbounds nuw %struct.pathspec_item, ptr %12, i32 0, i32 0
  %14 = load ptr, ptr %13, align 8, !tbaa !32
  %15 = load i64, ptr %3, align 8, !tbaa !19
  %16 = call ptr @xmemdupz(ptr noundef %14, i64 noundef %15)
  br label %18

17:                                               ; preds = %1
  br label %18

18:                                               ; preds = %17, %8
  %19 = phi ptr [ %16, %8 ], [ null, %17 ]
  call void @llvm.lifetime.end.p0(i64 8, ptr %3) #12
  ret ptr %19
}