; Function Attrs: nounwind uwtable
define dso_local ptr @common_prefix(ptr noundef readonly captures(none) %0) local_unnamed_addr #0 {
  %2 = tail call fastcc i64 @common_prefix_len(ptr noundef %0)
  %.not = icmp eq i64 %2, 0
  br i1 %.not, label %8, label %3

3:                                                ; preds = %1
  %4 = getelementptr inbounds nuw i8, ptr %0, i64 16
  %5 = load ptr, ptr %4, align 8, !tbaa !19
  %6 = load ptr, ptr %5, align 8, !tbaa !22
  %7 = tail call ptr @xmemdupz(ptr noundef %6, i64 noundef %2) #27
  br label %8

8:                                                ; preds = %1, %3
  %9 = phi ptr [ %7, %3 ], [ null, %1 ]
  ret ptr %9
}